; Function Attrs: mustprogress nounwind uwtable
define void @_ZN8tinyxml27StrPair5ResetEv(ptr noundef nonnull align 8 captures(none) dereferenceable(24) initializes((16, 24)) %0) local_unnamed_addr #0 align 2 {
  %2 = load i32, ptr %0, align 8, !tbaa !3
  %3 = and i32 %2, 512
  %.not = icmp eq i32 %3, 0
  br i1 %.not, label %9, label %4

4:                                                ; preds = %1
  %5 = getelementptr inbounds nuw i8, ptr %0, i64 8
  %6 = load ptr, ptr %5, align 8, !tbaa !10
  %7 = icmp eq ptr %6, null
  br i1 %7, label %9, label %8

8:                                                ; preds = %4
  tail call void @_ZdaPv(ptr noundef nonnull %6) #30
  br label %9

9:                                                ; preds = %4, %8, %1
  store i32 0, ptr %0, align 8, !tbaa !3
  %10 = getelementptr inbounds nuw i8, ptr %0, i64 8
  tail call void @llvm.memset.p0.i64(ptr noundef nonnull align 8 dereferenceable(16) %10, i8 0, i64 16, i1 false)
  ret void
}